target datalayout = "e-m:e-p270:32:32-p271:32:32-p272:64:64-i64:64-i128:128-f80:128-n8:16:32:64-S128"
target triple = "x86_64-pc-linux-gnu"

%struct.evp_rand_ctx_st = type { ptr, ptr, ptr, %struct.CRYPTO_REF_COUNT, ptr }
%struct.CRYPTO_REF_COUNT = type { i32 }
%struct.evp_rand_st = type { ptr, i32, ptr, ptr, %struct.CRYPTO_REF_COUNT, ptr, ptr, ptr, ptr, ptr, ptr, ptr, ptr, ptr, ptr, ptr, ptr, ptr, ptr, ptr, ptr, ptr, ptr, ptr, ptr }

@.str = private unnamed_addr constant [33 x i8] c"../openssl/crypto/evp/evp_rand.c\00", align 1
@__func__.EVP_RAND_enable_locking = private unnamed_addr constant [24 x i8] c"EVP_RAND_enable_locking\00", align 1

; Function Attrs: nounwind uwtable
define i32 @EVP_RAND_enable_locking(ptr noundef %0) #0 {
  %2 = alloca i32, align 4
  %3 = alloca ptr, align 8
  store ptr %0, ptr %3, align 8, !tbaa !3
  %4 = load ptr, ptr %3, align 8, !tbaa !3
  %5 = getelementptr inbounds nuw %struct.evp_rand_ctx_st, ptr %4, i32 0, i32 0
  %6 = load ptr, ptr %5, align 8, !tbaa !8
  %7 = getelementptr inbounds nuw %struct.evp_rand_st, ptr %6, i32 0, i32 13
  %8 = load ptr, ptr %7, align 8, !tbaa !12
  %9 = icmp ne ptr %8, null
  br i1 %9, label %10, label %20

10:                                               ; preds = %1
  %11 = load ptr, ptr %3, align 8, !tbaa !3
  %12 = getelementptr inbounds nuw %struct.evp_rand_ctx_st, ptr %11, i32 0, i32 0
  %13 = load ptr, ptr %12, align 8, !tbaa !8
  %14 = getelementptr inbounds nuw %struct.evp_rand_st, ptr %13, i32 0, i32 13
  %15 = load ptr, ptr %14, align 8, !tbaa !12
  %16 = load ptr, ptr %3, align 8, !tbaa !3
  %17 = getelementptr inbounds nuw %struct.evp_rand_ctx_st, ptr %16, i32 0, i32 1
  %18 = load ptr, ptr %17, align 8, !tbaa !18
  %19 = call i32 %15(ptr noundef %18)
  store i32 %19, ptr %2, align 4
  br label %21

20:                                               ; preds = %1
  call void @ERR_new()
  call void @ERR_set_debug(ptr noundef @.str, i32 noundef 98, ptr noundef @__func__.EVP_RAND_enable_locking)
  call void (i32, i32, ptr, ...) @ERR_set_error(i32 noundef 6, i32 noundef 213, ptr noundef null)
  store i32 0, ptr %2, align 4
  br label %21

21:                                               ; preds = %20, %10
  %22 = load i32, ptr %2, align 4
  ret i32 %22
}