; Function Attrs: nounwind uwtable
define i32 @EVP_RAND_enable_locking(ptr noundef readonly captures(none) %0) local_unnamed_addr #0 {
  %2 = load ptr, ptr %0, align 8, !tbaa !3
  %3 = getelementptr inbounds nuw i8, ptr %2, i64 104
  %4 = load ptr, ptr %3, align 8, !tbaa !11
  %.not = icmp eq ptr %4, null
  br i1 %.not, label %9, label %5

5:                                                ; preds = %1
  %6 = getelementptr inbounds nuw i8, ptr %0, i64 8
  %7 = load ptr, ptr %6, align 8, !tbaa !17
  %8 = tail call i32 %4(ptr noundef %7) #8
  br label %10

9:                                                ; preds = %1
  tail call void @ERR_new() #8
  tail call void @ERR_set_debug(ptr noundef nonnull @.str, i32 noundef 98, ptr noundef nonnull @__func__.EVP_RAND_enable_locking) #8
  tail call void (i32, i32, ptr, ...) @ERR_set_error(i32 noundef 6, i32 noundef 213, ptr noundef null) #8
  br label %10

10:                                               ; preds = %9, %5
  %.0 = phi i32 [ %8, %5 ], [ 0, %9 ]
  ret i32 %.0
}